; Function Attrs: mustprogress uwtable
define hidden noundef i32 @_ZNK4cvc58internal6theory5arith6linear20LinearEqualityModule5minByERKSt6vectorIjSaIjEEMS4_KFjjjE(ptr noundef nonnull align 8 dereferenceable(456) %0, ptr noundef nonnull readonly align 8 captures(none) dereferenceable(24) %1, i64 %2, i64 %3) local_unnamed_addr #3 align 2 {
  %5 = load ptr, ptr %1, align 8, !tbaa !125
  %6 = getelementptr inbounds nuw i8, ptr %1, i64 8
  %7 = load ptr, ptr %6, align 8, !tbaa !125
  %8 = icmp eq ptr %5, %7
  br i1 %8, label %9, label %11

9:                                                ; preds = %4
  %10 = load i32, ptr @_ZN4cvc58internal6theory5arith6linear17ARITHVAR_SENTINELE, align 4, !tbaa !28
  br label %.loopexit

11:                                               ; preds = %4
  %12 = load i32, ptr %5, align 4, !tbaa !28
  %.sroa.015.019 = getelementptr inbounds nuw i8, ptr %5, i64 4
  %.not1820 = icmp eq ptr %.sroa.015.019, %7
  br i1 %.not1820, label %.loopexit, label %.lr.ph

.lr.ph:                                           ; preds = %11
  %13 = getelementptr inbounds i8, ptr %0, i64 %3
  %14 = and i64 %2, 1
  %.not = icmp eq i64 %14, 0
  %15 = inttoptr i64 %2 to ptr
  br i1 %.not, label %.lr.ph.split.us, label %.lr.ph.split

.lr.ph.split.us:                                  ; preds = %.lr.ph, %.lr.ph.split.us
  %.sroa.015.022.us = phi ptr [ %.sroa.015.0.us, %.lr.ph.split.us ], [ %.sroa.015.019, %.lr.ph ]
  %.021.us = phi i32 [ %17, %.lr.ph.split.us ], [ %12, %.lr.ph ]
  %16 = load i32, ptr %.sroa.015.022.us, align 4, !tbaa !28
  %17 = tail call noundef i32 %15(ptr noundef nonnull align 8 dereferenceable(456) %13, i32 noundef %.021.us, i32 noundef %16)
  %.sroa.015.0.us = getelementptr inbounds nuw i8, ptr %.sroa.015.022.us, i64 4
  %.not18.us = icmp eq ptr %.sroa.015.0.us, %7
  br i1 %.not18.us, label %.loopexit, label %.lr.ph.split.us, !llvm.loop !230

.lr.ph.split:                                     ; preds = %.lr.ph, %.lr.ph.split
  %.sroa.015.022 = phi ptr [ %.sroa.015.0, %.lr.ph.split ], [ %.sroa.015.019, %.lr.ph ]
  %.021 = phi i32 [ %23, %.lr.ph.split ], [ %12, %.lr.ph ]
  %18 = load ptr, ptr %13, align 8, !tbaa !81
  %19 = getelementptr i8, ptr %18, i64 %2
  %20 = getelementptr i8, ptr %19, i64 -1
  %21 = load ptr, ptr %20, align 8, !nosanitize !27
  %22 = load i32, ptr %.sroa.015.022, align 4, !tbaa !28
  %23 = tail call noundef i32 %21(ptr noundef nonnull align 8 dereferenceable(456) %13, i32 noundef %.021, i32 noundef %22)
  %.sroa.015.0 = getelementptr inbounds nuw i8, ptr %.sroa.015.022, i64 4
  %.not18 = icmp eq ptr %.sroa.015.0, %7
  br i1 %.not18, label %.loopexit, label %.lr.ph.split, !llvm.loop !230

.loopexit:                                        ; preds = %.lr.ph.split, %.lr.ph.split.us, %11, %9
  %.013 = phi i32 [ %10, %9 ], [ %12, %11 ], [ %17, %.lr.ph.split.us ], [ %23, %.lr.ph.split ]
  ret i32 %.013
}